; Function Attrs: mustprogress uwtable
define dso_local void @_ZN4Luau7dumpDotEPKNS_4TypeE(ptr noundef %0) local_unnamed_addr #2 personality ptr @__gxx_personality_v0 {
  %2 = alloca %"struct.Luau::ToDotOptions", align 1
  %3 = alloca %"class.std::__cxx11::basic_string", align 8
  call void @llvm.lifetime.start.p0(i64 32, ptr nonnull %3) #17
  call void @llvm.lifetime.start.p0(i64 2, ptr nonnull %2) #17, !noalias !111
  store i8 1, ptr %2, align 1, !tbaa !109, !noalias !111
  %4 = getelementptr inbounds nuw i8, ptr %2, i64 1
  store i8 1, ptr %4, align 1, !tbaa !110, !noalias !111
  call void @_ZN4Luau5toDotB5cxx11EPKNS_4TypeERKNS_12ToDotOptionsE(ptr dead_on_unwind nonnull writable sret(%"class.std::__cxx11::basic_string") align 8 %3, ptr noundef %0, ptr noundef nonnull align 1 dereferenceable(2) %2)
  call void @llvm.lifetime.end.p0(i64 2, ptr nonnull %2) #17, !noalias !111
  %5 = load ptr, ptr %3, align 8, !tbaa !43
  %puts = call i32 @puts(ptr nonnull dereferenceable(1) %5)
  %6 = load ptr, ptr %3, align 8, !tbaa !43
  %7 = getelementptr inbounds nuw i8, ptr %3, i64 16
  %8 = icmp eq ptr %6, %7
  br i1 %8, label %_ZNKSt7__cxx1112basic_stringIcSt11char_traitsIcESaIcEE11_M_is_localEv.exit.thread.i.i, label %_ZNKSt7__cxx1112basic_stringIcSt11char_traitsIcESaIcEE11_M_is_localEv.exit.i.i

_ZNKSt7__cxx1112basic_stringIcSt11char_traitsIcESaIcEE11_M_is_localEv.exit.thread.i.i: ; preds = %1
  %9 = getelementptr inbounds nuw i8, ptr %3, i64 8
  %10 = load i64, ptr %9, align 8, !tbaa !41
  %11 = icmp ult i64 %10, 16
  call void @llvm.assume(i1 %11)
  br label %_ZNSt7__cxx1112basic_stringIcSt11char_traitsIcESaIcEED2Ev.exit

_ZNKSt7__cxx1112basic_stringIcSt11char_traitsIcESaIcEE11_M_is_localEv.exit.i.i: ; preds = %1
  %12 = load i64, ptr %7, align 8, !tbaa !42
  %13 = add i64 %12, 1
  call void @_ZdlPvm(ptr noundef %6, i64 noundef %13) #20
  br label %_ZNSt7__cxx1112basic_stringIcSt11char_traitsIcESaIcEED2Ev.exit

_ZNSt7__cxx1112basic_stringIcSt11char_traitsIcESaIcEED2Ev.exit: ; preds = %_ZNKSt7__cxx1112basic_stringIcSt11char_traitsIcESaIcEE11_M_is_localEv.exit.thread.i.i, %_ZNKSt7__cxx1112basic_stringIcSt11char_traitsIcESaIcEE11_M_is_localEv.exit.i.i
  call void @llvm.lifetime.end.p0(i64 32, ptr nonnull %3) #17
  ret void
}